target datalayout = "e-m:e-p270:32:32-p271:32:32-p272:64:64-i64:64-i128:128-f80:128-n8:16:32:64-S128"
target triple = "x86_64-pc-linux-gnu"

%struct.alts_frame_writer = type { ptr, [8 x i8], i64, i64, i64 }

; Function Attrs: mustprogress nounwind uwtable
define noundef i64 @_Z35alts_get_num_writer_bytes_remainingP17alts_frame_writer(ptr noundef %0) #2 {
  %2 = alloca ptr, align 8
  store ptr %0, ptr %2, align 8, !tbaa !3
  %3 = load ptr, ptr %2, align 8, !tbaa !3
  %4 = getelementptr inbounds nuw %struct.alts_frame_writer, ptr %3, i32 0, i32 3
  %5 = load i64, ptr %4, align 8, !tbaa !16
  %6 = sub i64 8, %5
  %7 = load ptr, ptr %2, align 8, !tbaa !3
  %8 = getelementptr inbounds nuw %struct.alts_frame_writer, ptr %7, i32 0, i32 4
  %9 = load i64, ptr %8, align 8, !tbaa !14
  %10 = load ptr, ptr %2, align 8, !tbaa !3
  %11 = getelementptr inbounds nuw %struct.alts_frame_writer, ptr %10, i32 0, i32 2
  %12 = load i64, ptr %11, align 8, !tbaa !15
  %13 = sub i64 %9, %12
  %14 = add i64 %6, %13
  ret i64 %14
}