; Function Attrs: mustprogress nofree norecurse nosync nounwind willreturn memory(argmem: read) uwtable
define noundef i64 @_Z35alts_get_num_writer_bytes_remainingP17alts_frame_writer(ptr noundef readonly captures(none) %0) local_unnamed_addr #5 {
  %2 = getelementptr inbounds nuw i8, ptr %0, i64 24
  %3 = load i64, ptr %2, align 8, !tbaa !14
  %4 = getelementptr inbounds nuw i8, ptr %0, i64 32
  %5 = load i64, ptr %4, align 8, !tbaa !11
  %6 = getelementptr inbounds nuw i8, ptr %0, i64 16
  %7 = load i64, ptr %6, align 8, !tbaa !13
  %8 = add i64 %5, 8
  %9 = add i64 %3, %7
  %10 = sub i64 %8, %9
  ret i64 %10
}